target datalayout = "e-m:e-p270:32:32-p271:32:32-p272:64:64-i64:64-i128:128-f80:128-n8:16:32:64-S128"
target triple = "x86_64-pc-linux-gnu"

%class.b3GpuNarrowPhase = type { ptr, ptr, i32, i32, i32, ptr, ptr, ptr }
%struct.b3GpuNarrowPhaseInternalData = type { ptr, %class.b3AlignedObjectArray, %class.b3AlignedObjectArray.0, %class.b3AlignedObjectArray.0, %class.b3AlignedObjectArray.2, ptr, ptr, ptr, ptr, ptr, ptr, ptr, ptr, ptr, %class.b3AlignedObjectArray.4, ptr, %class.b3AlignedObjectArray.6, ptr, ptr, ptr, [2 x ptr], i32, ptr, ptr, ptr, ptr, ptr, i32, i32, %class.b3AlignedObjectArray.8, ptr, ptr, ptr, %class.b3AlignedObjectArray.10, %class.b3AlignedObjectArray.12, %class.b3AlignedObjectArray.14, %class.b3AlignedObjectArray.16, %class.b3AlignedObjectArray.18, ptr, ptr, ptr, %struct.b3Config }
%class.b3AlignedObjectArray = type <{ [4 x i8], i32, i32, [4 x i8], ptr, i8, [7 x i8] }>
%class.b3AlignedObjectArray.0 = type <{ [4 x i8], i32, i32, [4 x i8], ptr, i8, [7 x i8] }>
%class.b3AlignedObjectArray.2 = type <{ [4 x i8], i32, i32, [4 x i8], ptr, i8, [7 x i8] }>
%class.b3AlignedObjectArray.4 = type <{ [4 x i8], i32, i32, [4 x i8], ptr, i8, [7 x i8] }>
%class.b3AlignedObjectArray.6 = type <{ [4 x i8], i32, i32, [4 x i8], ptr, i8, [7 x i8] }>
%class.b3AlignedObjectArray.8 = type <{ [4 x i8], i32, i32, [4 x i8], ptr, i8, [7 x i8] }>
%class.b3AlignedObjectArray.10 = type <{ [4 x i8], i32, i32, [4 x i8], ptr, i8, [7 x i8] }>
%class.b3AlignedObjectArray.12 = type <{ [4 x i8], i32, i32, [4 x i8], ptr, i8, [7 x i8] }>
%class.b3AlignedObjectArray.14 = type <{ [4 x i8], i32, i32, [4 x i8], ptr, i8, [7 x i8] }>
%class.b3AlignedObjectArray.16 = type <{ [4 x i8], i32, i32, [4 x i8], ptr, i8, [7 x i8] }>
%class.b3AlignedObjectArray.18 = type <{ [4 x i8], i32, i32, [4 x i8], ptr, i8, [7 x i8] }>
%struct.b3Config = type { i32, i32, i32, i32, i32, i32, i32, i32, i32, i32, i32, i32 }
%struct.b3Collidable = type { %union.anon.66, %union.anon.67, i32, %union.anon.68 }
%union.anon.66 = type { i32 }
%union.anon.67 = type { float }
%union.anon.68 = type { i32 }

; Function Attrs: inlinehint mustprogress nounwind uwtable
define linkonce_odr dso_local noundef nonnull align 4 dereferenceable(16) ptr @_ZN20b3AlignedObjectArrayI12b3CollidableEixEi(ptr noundef nonnull align 8 dereferenceable(25) %0, i32 noundef %1) #9 comdat align 2 {
  %3 = alloca ptr, align 8
  %4 = alloca i32, align 4
  store ptr %0, ptr %3, align 8, !tbaa !198
  store i32 %1, ptr %4, align 4, !tbaa !85
  %5 = load ptr, ptr %3, align 8
  %6 = getelementptr inbounds nuw %class.b3AlignedObjectArray.8, ptr %5, i32 0, i32 4
  %7 = load ptr, ptr %6, align 8, !tbaa !203
  %8 = load i32, ptr %4, align 4, !tbaa !85
  %9 = sext i32 %8 to i64
  %10 = getelementptr inbounds %struct.b3Collidable, ptr %7, i64 %9
  ret ptr %10
}

; Function Attrs: inlinehint mustprogress nounwind uwtable
define linkonce_odr dso_local noundef i32 @_ZNK20b3AlignedObjectArrayI12b3CollidableE4sizeEv(ptr noundef nonnull align 8 dereferenceable(25) %0) #9 comdat align 2 {
  %2 = alloca ptr, align 8
  store ptr %0, ptr %2, align 8, !tbaa !198
  %3 = load ptr, ptr %2, align 8
  %4 = getelementptr inbounds nuw %class.b3AlignedObjectArray.8, ptr %3, i32 0, i32 1
  %5 = load i32, ptr %4, align 4, !tbaa !201
  ret i32 %5
}

; Function Attrs: mustprogress uwtable
define dso_local noundef ptr @_ZNK16b3GpuNarrowPhase17getCollidablesCpuEv(ptr noundef nonnull align 8 dereferenceable(56) %0) #0 align 2 {
  %2 = alloca ptr, align 8
  %3 = alloca ptr, align 8
  store ptr %0, ptr %3, align 8, !tbaa !4
  %4 = load ptr, ptr %3, align 8
  %5 = getelementptr inbounds nuw %class.b3GpuNarrowPhase, ptr %4, i32 0, i32 1
  %6 = load ptr, ptr %5, align 8, !tbaa !19
  %7 = getelementptr inbounds nuw %struct.b3GpuNarrowPhaseInternalData, ptr %6, i32 0, i32 29
  %8 = call noundef i32 @_ZNK20b3AlignedObjectArrayI12b3CollidableE4sizeEv(ptr noundef nonnull align 8 dereferenceable(25) %7)
  %9 = icmp ne i32 %8, 0
  br i1 %9, label %10, label %15

10:                                               ; preds = %1
  %11 = getelementptr inbounds nuw %class.b3GpuNarrowPhase, ptr %4, i32 0, i32 1
  %12 = load ptr, ptr %11, align 8, !tbaa !19
  %13 = getelementptr inbounds nuw %struct.b3GpuNarrowPhaseInternalData, ptr %12, i32 0, i32 29
  %14 = call noundef nonnull align 4 dereferenceable(16) ptr @_ZN20b3AlignedObjectArrayI12b3CollidableEixEi(ptr noundef nonnull align 8 dereferenceable(25) %13, i32 noundef 0)
  store ptr %14, ptr %2, align 8
  br label %16

15:                                               ; preds = %1
  store ptr null, ptr %2, align 8
  br label %16

16:                                               ; preds = %15, %10
  %17 = load ptr, ptr %2, align 8
  ret ptr %17
}