; Function Attrs: mustprogress nofree norecurse nosync nounwind willreturn memory(read, inaccessiblemem: none) uwtable
define dso_local noundef ptr @_ZNK16b3GpuNarrowPhase17getCollidablesCpuEv(ptr noundef nonnull readonly align 8 captures(none) dereferenceable(56) %0) local_unnamed_addr #13 align 2 {
  %2 = getelementptr inbounds nuw i8, ptr %0, i64 8
  %3 = load ptr, ptr %2, align 8, !tbaa !7
  %4 = getelementptr inbounds nuw i8, ptr %3, i64 380
  %5 = load i32, ptr %4, align 4, !tbaa !121
  %.not = icmp eq i32 %5, 0
  br i1 %.not, label %9, label %6

6:                                                ; preds = %1
  %7 = getelementptr inbounds nuw i8, ptr %3, i64 392
  %8 = load ptr, ptr %7, align 8, !tbaa !122
  br label %9

9:                                                ; preds = %1, %6
  %.0 = phi ptr [ %8, %6 ], [ null, %1 ]
  ret ptr %.0
}